target datalayout = "e-m:e-p270:32:32-p271:32:32-p272:64:64-i64:64-i128:128-f80:128-n8:16:32:64-S128"
target triple = "x86_64-pc-linux-gnu"

%struct.hwloc_obj = type { i32, ptr, i32, ptr, i64, ptr, i32, i32, ptr, ptr, ptr, i32, ptr, ptr, i32, ptr, ptr, ptr, i32, i32, ptr, i32, ptr, i32, ptr, ptr, ptr, ptr, ptr, %struct.hwloc_infos_s, ptr, i64 }
%struct.hwloc_infos_s = type { ptr, i32, i32 }
%struct.hwloc_info_s = type { ptr, ptr }

@.str.79 = private unnamed_addr constant [4 x i8] c"KiB\00", align 1
@.str.80 = private unnamed_addr constant [3 x i8] c"KB\00", align 1
@.str.81 = private unnamed_addr constant [4 x i8] c"MiB\00", align 1
@.str.82 = private unnamed_addr constant [3 x i8] c"MB\00", align 1
@.str.83 = private unnamed_addr constant [4 x i8] c"GiB\00", align 1
@.str.84 = private unnamed_addr constant [3 x i8] c"GB\00", align 1
@.str.85 = private unnamed_addr constant [4 x i8] c"TiB\00", align 1
@.str.86 = private unnamed_addr constant [3 x i8] c"TB\00", align 1

; Function Attrs: inlinehint nounwind willreturn memory(read) uwtable
define internal ptr @hwloc_get_info_by_name(ptr noundef %0, ptr noundef %1) #6 {
  %3 = alloca ptr, align 8
  %4 = alloca ptr, align 8
  %5 = alloca ptr, align 8
  %6 = alloca i32, align 4
  %7 = alloca ptr, align 8
  %8 = alloca i32, align 4
  store ptr %0, ptr %4, align 8, !tbaa !118
  store ptr %1, ptr %5, align 8, !tbaa !33
  call void @llvm.lifetime.start.p0(i64 4, ptr %6) #12
  store i32 0, ptr %6, align 4, !tbaa !18
  br label %9

9:                                                ; preds = %36, %2
  %10 = load i32, ptr %6, align 4, !tbaa !18
  %11 = load ptr, ptr %4, align 8, !tbaa !118
  %12 = getelementptr inbounds nuw %struct.hwloc_infos_s, ptr %11, i32 0, i32 1
  %13 = load i32, ptr %12, align 8, !tbaa !120
  %14 = icmp ult i32 %10, %13
  br i1 %14, label %15, label %39

15:                                               ; preds = %9
  call void @llvm.lifetime.start.p0(i64 8, ptr %7) #12
  %16 = load ptr, ptr %4, align 8, !tbaa !118
  %17 = getelementptr inbounds nuw %struct.hwloc_infos_s, ptr %16, i32 0, i32 0
  %18 = load ptr, ptr %17, align 8, !tbaa !121
  %19 = load i32, ptr %6, align 4, !tbaa !18
  %20 = zext i32 %19 to i64
  %21 = getelementptr inbounds nuw %struct.hwloc_info_s, ptr %18, i64 %20
  store ptr %21, ptr %7, align 8, !tbaa !122
  %22 = load ptr, ptr %7, align 8, !tbaa !122
  %23 = getelementptr inbounds nuw %struct.hwloc_info_s, ptr %22, i32 0, i32 0
  %24 = load ptr, ptr %23, align 8, !tbaa !86
  %25 = load ptr, ptr %5, align 8, !tbaa !33
  %26 = call i32 @strcmp(ptr noundef %24, ptr noundef %25) #11
  %27 = icmp ne i32 %26, 0
  br i1 %27, label %32, label %28

28:                                               ; preds = %15
  %29 = load ptr, ptr %7, align 8, !tbaa !122
  %30 = getelementptr inbounds nuw %struct.hwloc_info_s, ptr %29, i32 0, i32 1
  %31 = load ptr, ptr %30, align 8, !tbaa !88
  store ptr %31, ptr %3, align 8
  store i32 1, ptr %8, align 4
  br label %33

32:                                               ; preds = %15
  store i32 0, ptr %8, align 4
  br label %33

33:                                               ; preds = %32, %28
  call void @llvm.lifetime.end.p0(i64 8, ptr %7) #12
  %34 = load i32, ptr %8, align 4
  switch i32 %34, label %40 [
    i32 0, label %35
  ]

35:                                               ; preds = %33
  br label %36

36:                                               ; preds = %35
  %37 = load i32, ptr %6, align 4, !tbaa !18
  %38 = add i32 %37, 1
  store i32 %38, ptr %6, align 4, !tbaa !18
  br label %9, !llvm.loop !123

39:                                               ; preds = %9
  store ptr null, ptr %3, align 8
  store i32 1, ptr %8, align 4
  br label %40

40:                                               ; preds = %39, %33
  call void @llvm.lifetime.end.p0(i64 4, ptr %6) #12
  %41 = load ptr, ptr %3, align 8
  ret ptr %41
}

; Function Attrs: inlinehint nounwind willreturn memory(read) uwtable
define internal ptr @hwloc_obj_get_info_by_name(ptr noundef %0, ptr noundef %1) #6 {
  %3 = alloca ptr, align 8
  %4 = alloca ptr, align 8
  store ptr %0, ptr %3, align 8, !tbaa !42
  store ptr %1, ptr %4, align 8, !tbaa !33
  %5 = load ptr, ptr %3, align 8, !tbaa !42
  %6 = getelementptr inbounds nuw %struct.hwloc_obj, ptr %5, i32 0, i32 29
  %7 = load ptr, ptr %4, align 8, !tbaa !33
  %8 = call ptr @hwloc_get_info_by_name(ptr noundef %6, ptr noundef %7) #11
  ret ptr %8
}

; Function Attrs: nounwind uwtable
define internal i64 @parse_info_size(ptr noundef %0, ptr noundef %1) #0 {
  %3 = alloca i64, align 8
  %4 = alloca ptr, align 8
  %5 = alloca ptr, align 8
  %6 = alloca ptr, align 8
  %7 = alloca ptr, align 8
  %8 = alloca i64, align 8
  %9 = alloca i32, align 4
  store ptr %0, ptr %4, align 8, !tbaa !42
  store ptr %1, ptr %5, align 8, !tbaa !33
  call void @llvm.lifetime.start.p0(i64 8, ptr %6) #12
  call void @llvm.lifetime.start.p0(i64 8, ptr %7) #12
  call void @llvm.lifetime.start.p0(i64 8, ptr %8) #12
  %10 = load ptr, ptr %4, align 8, !tbaa !42
  %11 = load ptr, ptr %5, align 8, !tbaa !33
  %12 = call ptr @hwloc_obj_get_info_by_name(ptr noundef %10, ptr noundef %11) #11
  store ptr %12, ptr %6, align 8, !tbaa !33
  %13 = load ptr, ptr %6, align 8, !tbaa !33
  %14 = icmp ne ptr %13, null
  br i1 %14, label %16, label %15

15:                                               ; preds = %2
  store i64 0, ptr %3, align 8
  store i32 1, ptr %9, align 4
  br label %93

16:                                               ; preds = %2
  %17 = load ptr, ptr %6, align 8, !tbaa !33
  %18 = call i64 @strtoull(ptr noundef %17, ptr noundef %7, i32 noundef 10) #12
  store i64 %18, ptr %8, align 8, !tbaa !133
  %19 = load ptr, ptr %7, align 8, !tbaa !33
  %20 = load ptr, ptr %6, align 8, !tbaa !33
  %21 = icmp eq ptr %19, %20
  br i1 %21, label %22, label %23

22:                                               ; preds = %16
  store i64 0, ptr %3, align 8
  store i32 1, ptr %9, align 4
  br label %93

23:                                               ; preds = %16
  %24 = load ptr, ptr %7, align 8, !tbaa !33
  %25 = load i8, ptr %24, align 1, !tbaa !19
  %26 = icmp ne i8 %25, 0
  br i1 %26, label %27, label %91

27:                                               ; preds = %23
  %28 = load ptr, ptr %7, align 8, !tbaa !33
  %29 = call i32 @strcasecmp(ptr noundef %28, ptr noundef @.str.79) #11
  %30 = icmp ne i32 %29, 0
  br i1 %30, label %34, label %31

31:                                               ; preds = %27
  %32 = load i64, ptr %8, align 8, !tbaa !133
  %33 = shl i64 %32, 10
  store i64 %33, ptr %8, align 8, !tbaa !133
  br label %90

34:                                               ; preds = %27
  %35 = load ptr, ptr %7, align 8, !tbaa !33
  %36 = call i32 @strcasecmp(ptr noundef %35, ptr noundef @.str.80) #11
  %37 = icmp ne i32 %36, 0
  br i1 %37, label %41, label %38

38:                                               ; preds = %34
  %39 = load i64, ptr %8, align 8, !tbaa !133
  %40 = mul i64 %39, 1000
  store i64 %40, ptr %8, align 8, !tbaa !133
  br label %89

41:                                               ; preds = %34
  %42 = load ptr, ptr %7, align 8, !tbaa !33
  %43 = call i32 @strcasecmp(ptr noundef %42, ptr noundef @.str.81) #11
  %44 = icmp ne i32 %43, 0
  br i1 %44, label %48, label %45

45:                                               ; preds = %41
  %46 = load i64, ptr %8, align 8, !tbaa !133
  %47 = shl i64 %46, 20
  store i64 %47, ptr %8, align 8, !tbaa !133
  br label %88

48:                                               ; preds = %41
  %49 = load ptr, ptr %7, align 8, !tbaa !33
  %50 = call i32 @strcasecmp(ptr noundef %49, ptr noundef @.str.82) #11
  %51 = icmp ne i32 %50, 0
  br i1 %51, label %55, label %52

52:                                               ; preds = %48
  %53 = load i64, ptr %8, align 8, !tbaa !133
  %54 = mul i64 %53, 1000000
  store i64 %54, ptr %8, align 8, !tbaa !133
  br label %87

55:                                               ; preds = %48
  %56 = load ptr, ptr %7, align 8, !tbaa !33
  %57 = call i32 @strcasecmp(ptr noundef %56, ptr noundef @.str.83) #11
  %58 = icmp ne i32 %57, 0
  br i1 %58, label %62, label %59

59:                                               ; preds = %55
  %60 = load i64, ptr %8, align 8, !tbaa !133
  %61 = shl i64 %60, 30
  store i64 %61, ptr %8, align 8, !tbaa !133
  br label %86

62:                                               ; preds = %55
  %63 = load ptr, ptr %7, align 8, !tbaa !33
  %64 = call i32 @strcasecmp(ptr noundef %63, ptr noundef @.str.84) #11
  %65 = icmp ne i32 %64, 0
  br i1 %65, label %69, label %66

66:                                               ; preds = %62
  %67 = load i64, ptr %8, align 8, !tbaa !133
  %68 = mul i64 %67, 1000000000
  store i64 %68, ptr %8, align 8, !tbaa !133
  br label %85

69:                                               ; preds = %62
  %70 = load ptr, ptr %7, align 8, !tbaa !33
  %71 = call i32 @strcasecmp(ptr noundef %70, ptr noundef @.str.85) #11
  %72 = icmp ne i32 %71, 0
  br i1 %72, label %76, label %73

73:                                               ; preds = %69
  %74 = load i64, ptr %8, align 8, !tbaa !133
  %75 = shl i64 %74, 40
  store i64 %75, ptr %8, align 8, !tbaa !133
  br label %84

76:                                               ; preds = %69
  %77 = load ptr, ptr %7, align 8, !tbaa !33
  %78 = call i32 @strcasecmp(ptr noundef %77, ptr noundef @.str.86) #11
  %79 = icmp ne i32 %78, 0
  br i1 %79, label %83, label %80

80:                                               ; preds = %76
  %81 = load i64, ptr %8, align 8, !tbaa !133
  %82 = mul i64 %81, 1000000000000
  store i64 %82, ptr %8, align 8, !tbaa !133
  br label %83

83:                                               ; preds = %80, %76
  br label %84

84:                                               ; preds = %83, %73
  br label %85

85:                                               ; preds = %84, %66
  br label %86

86:                                               ; preds = %85, %59
  br label %87

87:                                               ; preds = %86, %52
  br label %88

88:                                               ; preds = %87, %45
  br label %89

89:                                               ; preds = %88, %38
  br label %90

90:                                               ; preds = %89, %31
  br label %91

91:                                               ; preds = %90, %23
  %92 = load i64, ptr %8, align 8, !tbaa !133
  store i64 %92, ptr %3, align 8
  store i32 1, ptr %9, align 4
  br label %93

93:                                               ; preds = %91, %22, %15
  call void @llvm.lifetime.end.p0(i64 8, ptr %8) #12
  call void @llvm.lifetime.end.p0(i64 8, ptr %7) #12
  call void @llvm.lifetime.end.p0(i64 8, ptr %6) #12
  %94 = load i64, ptr %3, align 8
  ret i64 %94
}