; Function Attrs: nofree nounwind uwtable
define internal fastcc i64 @parse_info_size(ptr noundef readonly captures(none) %0, ptr noundef readonly captures(none) %1) unnamed_addr #3 {
  %3 = alloca ptr, align 8
  call void @llvm.lifetime.start.p0(i64 8, ptr nonnull %3) #26
  %4 = getelementptr inbounds nuw i8, ptr %0, i64 224
  %5 = load i32, ptr %4, align 8, !tbaa !50
  %.not.i.i = icmp eq i32 %5, 0
  br i1 %.not.i.i, label %hwloc_obj_get_info_by_name.exit.thread, label %.lr.ph.i.i

.lr.ph.i.i:                                       ; preds = %2
  %6 = getelementptr inbounds nuw i8, ptr %0, i64 216
  %7 = load ptr, ptr %6, align 8, !tbaa !51
  %wide.trip.count.i.i = zext i32 %5 to i64
  br label %9

8:                                                ; preds = %9
  %indvars.iv.next.i.i = add nuw nsw i64 %indvars.iv.i.i, 1
  %exitcond.not.i.i = icmp eq i64 %indvars.iv.next.i.i, %wide.trip.count.i.i
  br i1 %exitcond.not.i.i, label %hwloc_obj_get_info_by_name.exit.thread, label %9, !llvm.loop !52

9:                                                ; preds = %8, %.lr.ph.i.i
  %indvars.iv.i.i = phi i64 [ 0, %.lr.ph.i.i ], [ %indvars.iv.next.i.i, %8 ]
  %10 = getelementptr inbounds nuw %struct.hwloc_info_s, ptr %7, i64 %indvars.iv.i.i
  %11 = load ptr, ptr %10, align 8, !tbaa !53
  %12 = tail call i32 @strcmp(ptr noundef nonnull dereferenceable(1) %11, ptr noundef nonnull readonly dereferenceable(1) %1) #24
  %.not.not.i.i = icmp eq i32 %12, 0
  br i1 %.not.not.i.i, label %hwloc_obj_get_info_by_name.exit, label %8

hwloc_obj_get_info_by_name.exit:                  ; preds = %9
  %13 = getelementptr inbounds nuw i8, ptr %10, i64 8
  %14 = load ptr, ptr %13, align 8, !tbaa !55
  %.not = icmp eq ptr %14, null
  br i1 %.not, label %hwloc_obj_get_info_by_name.exit.thread, label %15

15:                                               ; preds = %hwloc_obj_get_info_by_name.exit
  %16 = call i64 @strtoull(ptr noundef nonnull %14, ptr noundef nonnull %3, i32 noundef 10) #26
  %17 = load ptr, ptr %3, align 8, !tbaa !81
  %18 = icmp eq ptr %17, %14
  br i1 %18, label %hwloc_obj_get_info_by_name.exit.thread, label %19

19:                                               ; preds = %15
  %20 = load i8, ptr %17, align 1, !tbaa !56
  %.not17 = icmp eq i8 %20, 0
  br i1 %.not17, label %hwloc_obj_get_info_by_name.exit.thread, label %21

21:                                               ; preds = %19
  %22 = tail call i32 @strcasecmp(ptr noundef nonnull %17, ptr noundef nonnull @.str.79) #24
  %.not18 = icmp eq i32 %22, 0
  br i1 %.not18, label %23, label %25

23:                                               ; preds = %21
  %24 = shl i64 %16, 10
  br label %hwloc_obj_get_info_by_name.exit.thread

25:                                               ; preds = %21
  %26 = tail call i32 @strcasecmp(ptr noundef nonnull %17, ptr noundef nonnull @.str.80) #24
  %.not19 = icmp eq i32 %26, 0
  br i1 %.not19, label %27, label %29

27:                                               ; preds = %25
  %28 = mul i64 %16, 1000
  br label %hwloc_obj_get_info_by_name.exit.thread

29:                                               ; preds = %25
  %30 = tail call i32 @strcasecmp(ptr noundef nonnull %17, ptr noundef nonnull @.str.81) #24
  %.not20 = icmp eq i32 %30, 0
  br i1 %.not20, label %31, label %33

31:                                               ; preds = %29
  %32 = shl i64 %16, 20
  br label %hwloc_obj_get_info_by_name.exit.thread

33:                                               ; preds = %29
  %34 = tail call i32 @strcasecmp(ptr noundef nonnull %17, ptr noundef nonnull @.str.82) #24
  %.not21 = icmp eq i32 %34, 0
  br i1 %.not21, label %35, label %37

35:                                               ; preds = %33
  %36 = mul i64 %16, 1000000
  br label %hwloc_obj_get_info_by_name.exit.thread

37:                                               ; preds = %33
  %38 = tail call i32 @strcasecmp(ptr noundef nonnull %17, ptr noundef nonnull @.str.83) #24
  %.not22 = icmp eq i32 %38, 0
  br i1 %.not22, label %39, label %41

39:                                               ; preds = %37
  %40 = shl i64 %16, 30
  br label %hwloc_obj_get_info_by_name.exit.thread

41:                                               ; preds = %37
  %42 = tail call i32 @strcasecmp(ptr noundef nonnull %17, ptr noundef nonnull @.str.84) #24
  %.not23 = icmp eq i32 %42, 0
  br i1 %.not23, label %43, label %45

43:                                               ; preds = %41
  %44 = mul i64 %16, 1000000000
  br label %hwloc_obj_get_info_by_name.exit.thread

45:                                               ; preds = %41
  %46 = tail call i32 @strcasecmp(ptr noundef nonnull %17, ptr noundef nonnull @.str.85) #24
  %.not24 = icmp eq i32 %46, 0
  br i1 %.not24, label %47, label %49

47:                                               ; preds = %45
  %48 = shl i64 %16, 40
  br label %hwloc_obj_get_info_by_name.exit.thread

49:                                               ; preds = %45
  %50 = tail call i32 @strcasecmp(ptr noundef nonnull %17, ptr noundef nonnull @.str.86) #24
  %.not25 = icmp eq i32 %50, 0
  %51 = mul i64 %16, 1000000000000
  %spec.select = select i1 %.not25, i64 %51, i64 %16
  br label %hwloc_obj_get_info_by_name.exit.thread

hwloc_obj_get_info_by_name.exit.thread:           ; preds = %8, %2, %49, %19, %27, %35, %43, %47, %39, %31, %23, %15, %hwloc_obj_get_info_by_name.exit
  %.014 = phi i64 [ 0, %hwloc_obj_get_info_by_name.exit ], [ 0, %15 ], [ %48, %47 ], [ %44, %43 ], [ %40, %39 ], [ %36, %35 ], [ %32, %31 ], [ %28, %27 ], [ %24, %23 ], [ %16, %19 ], [ %spec.select, %49 ], [ 0, %2 ], [ 0, %8 ]
  call void @llvm.lifetime.end.p0(i64 8, ptr nonnull %3) #26
  ret i64 %.014
}